target datalayout = "e-m:e-p270:32:32-p271:32:32-p272:64:64-i64:64-i128:128-f80:128-n8:16:32:64-S128"
target triple = "x86_64-pc-linux-gnu"

%"struct.std::_Rb_tree_header" = type { %"struct.std::_Rb_tree_node_base", i64 }
%"struct.std::_Rb_tree_node_base" = type { i32, ptr, ptr, ptr }
%"class.rocksdb::Status" = type { i8, i8, i8, i8, i8, i8, %"class.std::unique_ptr.198" }
%"class.std::unique_ptr.198" = type { %"struct.std::__uniq_ptr_data.199" }
%"struct.std::__uniq_ptr_data.199" = type { %"class.std::__uniq_ptr_impl.200" }
%"class.std::__uniq_ptr_impl.200" = type { %"class.std::tuple.201" }
%"class.std::tuple.201" = type { %"struct.std::_Tuple_impl.202" }
%"struct.std::_Tuple_impl.202" = type { %"struct.std::_Head_base.205" }
%"struct.std::_Head_base.205" = type { ptr }
%"class.rocksdb::WriteBatch::Handler" = type { ptr }
%struct.SavePointBatchHandler = type { %"class.rocksdb::WriteBatch::Handler", ptr, ptr }
%"struct.std::_Rb_tree_const_iterator.652" = type { ptr }
%"struct.std::less.653" = type { i8 }
%"struct.std::pair.654" = type { i32, ptr }
%"class.std::map.496" = type { %"class.std::_Rb_tree.497" }
%"class.std::_Rb_tree.497" = type { %"struct.std::_Rb_tree<unsigned int, std::pair<const unsigned int, rocksdb::ColumnFamilyHandle *>, std::_Select1st<std::pair<const unsigned int, rocksdb::ColumnFamilyHandle *>>, std::less<unsigned int>>::_Rb_tree_impl" }
%"struct.std::_Rb_tree<unsigned int, std::pair<const unsigned int, rocksdb::ColumnFamilyHandle *>, std::_Select1st<std::pair<const unsigned int, rocksdb::ColumnFamilyHandle *>>, std::less<unsigned int>>::_Rb_tree_impl" = type { [8 x i8], %"struct.std::_Rb_tree_header" }
%"struct.std::_Select1st.658" = type { i8 }
%"struct.std::_Rb_tree_node.656" = type { %"struct.std::_Rb_tree_node_base", %"struct.__gnu_cxx::__aligned_membuf.657" }
%"struct.__gnu_cxx::__aligned_membuf.657" = type { [16 x i8] }

@.str.57 = private unnamed_addr constant [8 x i8] c"map::at\00", align 1

; Function Attrs: mustprogress nounwind uwtable
define linkonce_odr noundef nonnull align 4 dereferenceable(4) ptr @_ZNKSt10_Select1stISt4pairIKjPN7rocksdb18ColumnFamilyHandleEEEclERKS5_(ptr noundef nonnull align 1 dereferenceable(1) %0, ptr noundef nonnull align 8 dereferenceable(16) %1) #3 comdat align 2 {
  %3 = alloca ptr, align 8
  %4 = alloca ptr, align 8
  store ptr %0, ptr %3, align 8, !tbaa !1011
  store ptr %1, ptr %4, align 8, !tbaa !1013
  %5 = load ptr, ptr %4, align 8, !tbaa !1013
  %6 = getelementptr inbounds nuw %"struct.std::pair.654", ptr %5, i32 0, i32 0
  ret ptr %6
}

; Function Attrs: mustprogress nounwind uwtable
define linkonce_odr noundef ptr @_ZNK9__gnu_cxx16__aligned_membufISt4pairIKjPN7rocksdb18ColumnFamilyHandleEEE7_M_addrEv(ptr noundef nonnull align 8 dereferenceable(16) %0) #3 comdat align 2 {
  %2 = alloca ptr, align 8
  store ptr %0, ptr %2, align 8, !tbaa !1015
  %3 = load ptr, ptr %2, align 8
  %4 = getelementptr inbounds nuw %"struct.__gnu_cxx::__aligned_membuf.657", ptr %3, i32 0, i32 0
  ret ptr %4
}

; Function Attrs: mustprogress nounwind uwtable
define linkonce_odr noundef ptr @_ZNSt8_Rb_treeIjSt4pairIKjPN7rocksdb18ColumnFamilyHandleEESt10_Select1stIS5_ESt4lessIjESaIS5_EE8_S_rightEPKSt18_Rb_tree_node_base(ptr noundef %0) #3 comdat align 2 {
  %2 = alloca ptr, align 8
  store ptr %0, ptr %2, align 8, !tbaa !463
  %3 = load ptr, ptr %2, align 8, !tbaa !463
  %4 = getelementptr inbounds nuw %"struct.std::_Rb_tree_node_base", ptr %3, i32 0, i32 3
  %5 = load ptr, ptr %4, align 8, !tbaa !734
  ret ptr %5
}

; Function Attrs: mustprogress nounwind uwtable
define linkonce_odr noundef ptr @_ZNSt8_Rb_treeIjSt4pairIKjPN7rocksdb18ColumnFamilyHandleEESt10_Select1stIS5_ESt4lessIjESaIS5_EE7_S_leftEPKSt18_Rb_tree_node_base(ptr noundef %0) #3 comdat align 2 {
  %2 = alloca ptr, align 8
  store ptr %0, ptr %2, align 8, !tbaa !463
  %3 = load ptr, ptr %2, align 8, !tbaa !463
  %4 = getelementptr inbounds nuw %"struct.std::_Rb_tree_node_base", ptr %3, i32 0, i32 2
  %5 = load ptr, ptr %4, align 8, !tbaa !733
  ret ptr %5
}

; Function Attrs: mustprogress uwtable
define linkonce_odr noundef nonnull align 4 dereferenceable(4) ptr @_ZNSt8_Rb_treeIjSt4pairIKjPN7rocksdb18ColumnFamilyHandleEESt10_Select1stIS5_ESt4lessIjESaIS5_EE6_S_keyEPKSt13_Rb_tree_nodeIS5_E(ptr noundef %0) #5 comdat align 2 {
  %2 = alloca ptr, align 8
  %3 = alloca %"struct.std::_Select1st.658", align 1
  store ptr %0, ptr %2, align 8, !tbaa !1008
  call void @llvm.lifetime.start.p0(i64 1, ptr %3) #4
  %4 = load ptr, ptr %2, align 8, !tbaa !1008
  %5 = call noundef ptr @_ZNKSt13_Rb_tree_nodeISt4pairIKjPN7rocksdb18ColumnFamilyHandleEEE9_M_valptrEv(ptr noundef nonnull align 8 dereferenceable(48) %4)
  %6 = call noundef nonnull align 4 dereferenceable(4) ptr @_ZNKSt10_Select1stISt4pairIKjPN7rocksdb18ColumnFamilyHandleEEEclERKS5_(ptr noundef nonnull align 1 dereferenceable(1) %3, ptr noundef nonnull align 8 dereferenceable(16) %5)
  call void @llvm.lifetime.end.p0(i64 1, ptr %3) #4
  ret ptr %6
}

; Function Attrs: mustprogress nounwind uwtable
define linkonce_odr noundef ptr @_ZNK9__gnu_cxx16__aligned_membufISt4pairIKjPN7rocksdb18ColumnFamilyHandleEEE6_M_ptrEv(ptr noundef nonnull align 8 dereferenceable(16) %0) #3 comdat align 2 {
  %2 = alloca ptr, align 8
  store ptr %0, ptr %2, align 8, !tbaa !1015
  %3 = load ptr, ptr %2, align 8
  %4 = call noundef ptr @_ZNK9__gnu_cxx16__aligned_membufISt4pairIKjPN7rocksdb18ColumnFamilyHandleEEE7_M_addrEv(ptr noundef nonnull align 8 dereferenceable(16) %3) #4
  ret ptr %4
}

; Function Attrs: mustprogress nounwind uwtable
define linkonce_odr void @_ZNSt23_Rb_tree_const_iteratorISt4pairIKjPN7rocksdb18ColumnFamilyHandleEEEC2EPKSt18_Rb_tree_node_base(ptr noundef nonnull align 8 dereferenceable(8) %0, ptr noundef %1) unnamed_addr #3 comdat align 2 {
  %3 = alloca ptr, align 8
  %4 = alloca ptr, align 8
  store ptr %0, ptr %3, align 8, !tbaa !1000
  store ptr %1, ptr %4, align 8, !tbaa !463
  %5 = load ptr, ptr %3, align 8
  %6 = getelementptr inbounds nuw %"struct.std::_Rb_tree_const_iterator.652", ptr %5, i32 0, i32 0
  %7 = load ptr, ptr %4, align 8, !tbaa !463
  store ptr %7, ptr %6, align 8, !tbaa !1002
  ret void
}

; Function Attrs: mustprogress uwtable
define linkonce_odr ptr @_ZNKSt8_Rb_treeIjSt4pairIKjPN7rocksdb18ColumnFamilyHandleEESt10_Select1stIS5_ESt4lessIjESaIS5_EE14_M_lower_boundEPKSt13_Rb_tree_nodeIS5_EPKSt18_Rb_tree_node_baseRS1_(ptr noundef nonnull align 8 dereferenceable(48) %0, ptr noundef %1, ptr noundef %2, ptr noundef nonnull align 4 dereferenceable(4) %3) #5 comdat align 2 {
  %5 = alloca %"struct.std::_Rb_tree_const_iterator.652", align 8
  %6 = alloca ptr, align 8
  %7 = alloca ptr, align 8
  %8 = alloca ptr, align 8
  %9 = alloca ptr, align 8
  store ptr %0, ptr %6, align 8, !tbaa !1006
  store ptr %1, ptr %7, align 8, !tbaa !1008
  store ptr %2, ptr %8, align 8, !tbaa !463
  store ptr %3, ptr %9, align 8, !tbaa !666
  %10 = load ptr, ptr %6, align 8
  br label %11

11:                                               ; preds = %27, %4
  %12 = load ptr, ptr %7, align 8, !tbaa !1008
  %13 = icmp ne ptr %12, null
  br i1 %13, label %14, label %28

14:                                               ; preds = %11
  %15 = getelementptr inbounds nuw %"class.std::_Rb_tree.497", ptr %10, i32 0, i32 0
  %16 = load ptr, ptr %7, align 8, !tbaa !1008
  %17 = call noundef nonnull align 4 dereferenceable(4) ptr @_ZNSt8_Rb_treeIjSt4pairIKjPN7rocksdb18ColumnFamilyHandleEESt10_Select1stIS5_ESt4lessIjESaIS5_EE6_S_keyEPKSt13_Rb_tree_nodeIS5_E(ptr noundef %16)
  %18 = load ptr, ptr %9, align 8, !tbaa !666
  %19 = call noundef zeroext i1 @_ZNKSt4lessIjEclERKjS2_(ptr noundef nonnull align 1 dereferenceable(1) %15, ptr noundef nonnull align 4 dereferenceable(4) %17, ptr noundef nonnull align 4 dereferenceable(4) %18)
  br i1 %19, label %24, label %20

20:                                               ; preds = %14
  %21 = load ptr, ptr %7, align 8, !tbaa !1008
  store ptr %21, ptr %8, align 8, !tbaa !463
  %22 = load ptr, ptr %7, align 8, !tbaa !1008
  %23 = call noundef ptr @_ZNSt8_Rb_treeIjSt4pairIKjPN7rocksdb18ColumnFamilyHandleEESt10_Select1stIS5_ESt4lessIjESaIS5_EE7_S_leftEPKSt18_Rb_tree_node_base(ptr noundef %22) #4
  store ptr %23, ptr %7, align 8, !tbaa !1008
  br label %27

24:                                               ; preds = %14
  %25 = load ptr, ptr %7, align 8, !tbaa !1008
  %26 = call noundef ptr @_ZNSt8_Rb_treeIjSt4pairIKjPN7rocksdb18ColumnFamilyHandleEESt10_Select1stIS5_ESt4lessIjESaIS5_EE8_S_rightEPKSt18_Rb_tree_node_base(ptr noundef %25) #4
  store ptr %26, ptr %7, align 8, !tbaa !1008
  br label %27

27:                                               ; preds = %24, %20
  br label %11, !llvm.loop !1010

28:                                               ; preds = %11
  %29 = load ptr, ptr %8, align 8, !tbaa !463
  call void @_ZNSt23_Rb_tree_const_iteratorISt4pairIKjPN7rocksdb18ColumnFamilyHandleEEEC2EPKSt18_Rb_tree_node_base(ptr noundef nonnull align 8 dereferenceable(8) %5, ptr noundef %29) #4
  %30 = getelementptr inbounds nuw %"struct.std::_Rb_tree_const_iterator.652", ptr %5, i32 0, i32 0
  %31 = load ptr, ptr %30, align 8
  ret ptr %31
}

; Function Attrs: mustprogress nounwind uwtable
define linkonce_odr noundef ptr @_ZNKSt8_Rb_treeIjSt4pairIKjPN7rocksdb18ColumnFamilyHandleEESt10_Select1stIS5_ESt4lessIjESaIS5_EE6_M_endEv(ptr noundef nonnull align 8 dereferenceable(48) %0) #3 comdat align 2 {
  %2 = alloca ptr, align 8
  store ptr %0, ptr %2, align 8, !tbaa !1006
  %3 = load ptr, ptr %2, align 8
  %4 = getelementptr inbounds nuw %"class.std::_Rb_tree.497", ptr %3, i32 0, i32 0
  %5 = getelementptr inbounds i8, ptr %4, i64 8
  %6 = getelementptr inbounds nuw %"struct.std::_Rb_tree_header", ptr %5, i32 0, i32 0
  ret ptr %6
}

; Function Attrs: mustprogress nounwind uwtable
define linkonce_odr noundef ptr @_ZNKSt8_Rb_treeIjSt4pairIKjPN7rocksdb18ColumnFamilyHandleEESt10_Select1stIS5_ESt4lessIjESaIS5_EE8_M_beginEv(ptr noundef nonnull align 8 dereferenceable(48) %0) #3 comdat align 2 {
  %2 = alloca ptr, align 8
  store ptr %0, ptr %2, align 8, !tbaa !1006
  %3 = load ptr, ptr %2, align 8
  %4 = getelementptr inbounds nuw %"class.std::_Rb_tree.497", ptr %3, i32 0, i32 0
  %5 = getelementptr inbounds i8, ptr %4, i64 8
  %6 = getelementptr inbounds nuw %"struct.std::_Rb_tree_header", ptr %5, i32 0, i32 0
  %7 = getelementptr inbounds nuw %"struct.std::_Rb_tree_node_base", ptr %6, i32 0, i32 1
  %8 = load ptr, ptr %7, align 8, !tbaa !730
  ret ptr %8
}

; Function Attrs: mustprogress nounwind uwtable
define linkonce_odr noundef ptr @_ZNKSt13_Rb_tree_nodeISt4pairIKjPN7rocksdb18ColumnFamilyHandleEEE9_M_valptrEv(ptr noundef nonnull align 8 dereferenceable(48) %0) #3 comdat align 2 {
  %2 = alloca ptr, align 8
  store ptr %0, ptr %2, align 8, !tbaa !1008
  %3 = load ptr, ptr %2, align 8
  %4 = getelementptr inbounds nuw %"struct.std::_Rb_tree_node.656", ptr %3, i32 0, i32 1
  %5 = call noundef ptr @_ZNK9__gnu_cxx16__aligned_membufISt4pairIKjPN7rocksdb18ColumnFamilyHandleEEE6_M_ptrEv(ptr noundef nonnull align 8 dereferenceable(16) %4) #4
  ret ptr %5
}

; Function Attrs: mustprogress nounwind uwtable
define linkonce_odr void @_ZNKSt8_Rb_treeIjSt4pairIKjPN7rocksdb18ColumnFamilyHandleEESt10_Select1stIS5_ESt4lessIjESaIS5_EE8key_compEv(ptr noundef nonnull align 8 dereferenceable(48) %0) #3 comdat align 2 {
  %2 = alloca ptr, align 8
  store ptr %0, ptr %2, align 8, !tbaa !1006
  ret void
}

; Function Attrs: mustprogress nounwind uwtable
define linkonce_odr ptr @_ZNKSt8_Rb_treeIjSt4pairIKjPN7rocksdb18ColumnFamilyHandleEESt10_Select1stIS5_ESt4lessIjESaIS5_EE3endEv(ptr noundef nonnull align 8 dereferenceable(48) %0) #3 comdat align 2 {
  %2 = alloca %"struct.std::_Rb_tree_const_iterator.652", align 8
  %3 = alloca ptr, align 8
  store ptr %0, ptr %3, align 8, !tbaa !1006
  %4 = load ptr, ptr %3, align 8
  %5 = getelementptr inbounds nuw %"class.std::_Rb_tree.497", ptr %4, i32 0, i32 0
  %6 = getelementptr inbounds i8, ptr %5, i64 8
  %7 = getelementptr inbounds nuw %"struct.std::_Rb_tree_header", ptr %6, i32 0, i32 0
  call void @_ZNSt23_Rb_tree_const_iteratorISt4pairIKjPN7rocksdb18ColumnFamilyHandleEEEC2EPKSt18_Rb_tree_node_base(ptr noundef nonnull align 8 dereferenceable(8) %2, ptr noundef %7) #4
  %8 = getelementptr inbounds nuw %"struct.std::_Rb_tree_const_iterator.652", ptr %2, i32 0, i32 0
  %9 = load ptr, ptr %8, align 8
  ret ptr %9
}

; Function Attrs: mustprogress uwtable
define linkonce_odr ptr @_ZNKSt8_Rb_treeIjSt4pairIKjPN7rocksdb18ColumnFamilyHandleEESt10_Select1stIS5_ESt4lessIjESaIS5_EE11lower_boundERS1_(ptr noundef nonnull align 8 dereferenceable(48) %0, ptr noundef nonnull align 4 dereferenceable(4) %1) #5 comdat align 2 {
  %3 = alloca %"struct.std::_Rb_tree_const_iterator.652", align 8
  %4 = alloca ptr, align 8
  %5 = alloca ptr, align 8
  store ptr %0, ptr %4, align 8, !tbaa !1006
  store ptr %1, ptr %5, align 8, !tbaa !666
  %6 = load ptr, ptr %4, align 8
  %7 = call noundef ptr @_ZNKSt8_Rb_treeIjSt4pairIKjPN7rocksdb18ColumnFamilyHandleEESt10_Select1stIS5_ESt4lessIjESaIS5_EE8_M_beginEv(ptr noundef nonnull align 8 dereferenceable(48) %6) #4
  %8 = call noundef ptr @_ZNKSt8_Rb_treeIjSt4pairIKjPN7rocksdb18ColumnFamilyHandleEESt10_Select1stIS5_ESt4lessIjESaIS5_EE6_M_endEv(ptr noundef nonnull align 8 dereferenceable(48) %6) #4
  %9 = load ptr, ptr %5, align 8, !tbaa !666
  %10 = call ptr @_ZNKSt8_Rb_treeIjSt4pairIKjPN7rocksdb18ColumnFamilyHandleEESt10_Select1stIS5_ESt4lessIjESaIS5_EE14_M_lower_boundEPKSt13_Rb_tree_nodeIS5_EPKSt18_Rb_tree_node_baseRS1_(ptr noundef nonnull align 8 dereferenceable(48) %6, ptr noundef %7, ptr noundef %8, ptr noundef nonnull align 4 dereferenceable(4) %9)
  %11 = getelementptr inbounds nuw %"struct.std::_Rb_tree_const_iterator.652", ptr %3, i32 0, i32 0
  store ptr %10, ptr %11, align 8
  %12 = getelementptr inbounds nuw %"struct.std::_Rb_tree_const_iterator.652", ptr %3, i32 0, i32 0
  %13 = load ptr, ptr %12, align 8
  ret ptr %13
}

; Function Attrs: mustprogress nounwind uwtable
define linkonce_odr noundef zeroext i1 @_ZNKSt4lessIjEclERKjS2_(ptr noundef nonnull align 1 dereferenceable(1) %0, ptr noundef nonnull align 4 dereferenceable(4) %1, ptr noundef nonnull align 4 dereferenceable(4) %2) #3 comdat align 2 {
  %4 = alloca ptr, align 8
  %5 = alloca ptr, align 8
  %6 = alloca ptr, align 8
  store ptr %0, ptr %4, align 8, !tbaa !1004
  store ptr %1, ptr %5, align 8, !tbaa !666
  store ptr %2, ptr %6, align 8, !tbaa !666
  %7 = load ptr, ptr %5, align 8, !tbaa !666
  %8 = load i32, ptr %7, align 4, !tbaa !529
  %9 = load ptr, ptr %6, align 8, !tbaa !666
  %10 = load i32, ptr %9, align 4, !tbaa !529
  %11 = icmp ult i32 %8, %10
  ret i1 %11
}

; Function Attrs: mustprogress nounwind uwtable
define linkonce_odr noundef nonnull align 8 dereferenceable(16) ptr @_ZNKSt23_Rb_tree_const_iteratorISt4pairIKjPN7rocksdb18ColumnFamilyHandleEEEdeEv(ptr noundef nonnull align 8 dereferenceable(8) %0) #3 comdat align 2 {
  %2 = alloca ptr, align 8
  store ptr %0, ptr %2, align 8, !tbaa !1000
  %3 = load ptr, ptr %2, align 8
  %4 = getelementptr inbounds nuw %"struct.std::_Rb_tree_const_iterator.652", ptr %3, i32 0, i32 0
  %5 = load ptr, ptr %4, align 8, !tbaa !1002
  %6 = call noundef ptr @_ZNKSt13_Rb_tree_nodeISt4pairIKjPN7rocksdb18ColumnFamilyHandleEEE9_M_valptrEv(ptr noundef nonnull align 8 dereferenceable(48) %5)
  ret ptr %6
}

; Function Attrs: mustprogress uwtable
define linkonce_odr void @_ZNKSt3mapIjPN7rocksdb18ColumnFamilyHandleESt4lessIjESaISt4pairIKjS2_EEE8key_compEv(ptr noundef nonnull align 8 dereferenceable(48) %0) #5 comdat align 2 {
  %2 = alloca ptr, align 8
  store ptr %0, ptr %2, align 8, !tbaa !474
  %3 = load ptr, ptr %2, align 8
  %4 = getelementptr inbounds nuw %"class.std::map.496", ptr %3, i32 0, i32 0
  call void @_ZNKSt8_Rb_treeIjSt4pairIKjPN7rocksdb18ColumnFamilyHandleEESt10_Select1stIS5_ESt4lessIjESaIS5_EE8key_compEv(ptr noundef nonnull align 8 dereferenceable(48) %4)
  ret void
}

; Function Attrs: mustprogress nounwind uwtable
define linkonce_odr noundef zeroext i1 @_ZSteqRKSt23_Rb_tree_const_iteratorISt4pairIKjPN7rocksdb18ColumnFamilyHandleEEES8_(ptr noundef nonnull align 8 dereferenceable(8) %0, ptr noundef nonnull align 8 dereferenceable(8) %1) #3 comdat {
  %3 = alloca ptr, align 8
  %4 = alloca ptr, align 8
  store ptr %0, ptr %3, align 8, !tbaa !1000
  store ptr %1, ptr %4, align 8, !tbaa !1000
  %5 = load ptr, ptr %3, align 8, !tbaa !1000
  %6 = getelementptr inbounds nuw %"struct.std::_Rb_tree_const_iterator.652", ptr %5, i32 0, i32 0
  %7 = load ptr, ptr %6, align 8, !tbaa !1002
  %8 = load ptr, ptr %4, align 8, !tbaa !1000
  %9 = getelementptr inbounds nuw %"struct.std::_Rb_tree_const_iterator.652", ptr %8, i32 0, i32 0
  %10 = load ptr, ptr %9, align 8, !tbaa !1002
  %11 = icmp eq ptr %7, %10
  ret i1 %11
}

; Function Attrs: mustprogress nounwind uwtable
define linkonce_odr ptr @_ZNKSt3mapIjPN7rocksdb18ColumnFamilyHandleESt4lessIjESaISt4pairIKjS2_EEE3endEv(ptr noundef nonnull align 8 dereferenceable(48) %0) #3 comdat align 2 {
  %2 = alloca %"struct.std::_Rb_tree_const_iterator.652", align 8
  %3 = alloca ptr, align 8
  store ptr %0, ptr %3, align 8, !tbaa !474
  %4 = load ptr, ptr %3, align 8
  %5 = getelementptr inbounds nuw %"class.std::map.496", ptr %4, i32 0, i32 0
  %6 = call ptr @_ZNKSt8_Rb_treeIjSt4pairIKjPN7rocksdb18ColumnFamilyHandleEESt10_Select1stIS5_ESt4lessIjESaIS5_EE3endEv(ptr noundef nonnull align 8 dereferenceable(48) %5) #4
  %7 = getelementptr inbounds nuw %"struct.std::_Rb_tree_const_iterator.652", ptr %2, i32 0, i32 0
  store ptr %6, ptr %7, align 8
  %8 = getelementptr inbounds nuw %"struct.std::_Rb_tree_const_iterator.652", ptr %2, i32 0, i32 0
  %9 = load ptr, ptr %8, align 8
  ret ptr %9
}

; Function Attrs: mustprogress uwtable
define linkonce_odr ptr @_ZNKSt3mapIjPN7rocksdb18ColumnFamilyHandleESt4lessIjESaISt4pairIKjS2_EEE11lower_boundERS6_(ptr noundef nonnull align 8 dereferenceable(48) %0, ptr noundef nonnull align 4 dereferenceable(4) %1) #5 comdat align 2 {
  %3 = alloca %"struct.std::_Rb_tree_const_iterator.652", align 8
  %4 = alloca ptr, align 8
  %5 = alloca ptr, align 8
  store ptr %0, ptr %4, align 8, !tbaa !474
  store ptr %1, ptr %5, align 8, !tbaa !666
  %6 = load ptr, ptr %4, align 8
  %7 = getelementptr inbounds nuw %"class.std::map.496", ptr %6, i32 0, i32 0
  %8 = load ptr, ptr %5, align 8, !tbaa !666
  %9 = call ptr @_ZNKSt8_Rb_treeIjSt4pairIKjPN7rocksdb18ColumnFamilyHandleEESt10_Select1stIS5_ESt4lessIjESaIS5_EE11lower_boundERS1_(ptr noundef nonnull align 8 dereferenceable(48) %7, ptr noundef nonnull align 4 dereferenceable(4) %8)
  %10 = getelementptr inbounds nuw %"struct.std::_Rb_tree_const_iterator.652", ptr %3, i32 0, i32 0
  store ptr %9, ptr %10, align 8
  %11 = getelementptr inbounds nuw %"struct.std::_Rb_tree_const_iterator.652", ptr %3, i32 0, i32 0
  %12 = load ptr, ptr %11, align 8
  ret ptr %12
}

; Function Attrs: mustprogress uwtable
define linkonce_odr noundef nonnull align 8 dereferenceable(8) ptr @_ZNKSt3mapIjPN7rocksdb18ColumnFamilyHandleESt4lessIjESaISt4pairIKjS2_EEE2atERS6_(ptr noundef nonnull align 8 dereferenceable(48) %0, ptr noundef nonnull align 4 dereferenceable(4) %1) #5 comdat align 2 {
  %3 = alloca ptr, align 8
  %4 = alloca ptr, align 8
  %5 = alloca %"struct.std::_Rb_tree_const_iterator.652", align 8
  %6 = alloca %"struct.std::_Rb_tree_const_iterator.652", align 8
  %7 = alloca %"struct.std::less.653", align 1
  store ptr %0, ptr %3, align 8, !tbaa !474
  store ptr %1, ptr %4, align 8, !tbaa !666
  %8 = load ptr, ptr %3, align 8
  call void @llvm.lifetime.start.p0(i64 8, ptr %5) #4
  %9 = load ptr, ptr %4, align 8, !tbaa !666
  %10 = call ptr @_ZNKSt3mapIjPN7rocksdb18ColumnFamilyHandleESt4lessIjESaISt4pairIKjS2_EEE11lower_boundERS6_(ptr noundef nonnull align 8 dereferenceable(48) %8, ptr noundef nonnull align 4 dereferenceable(4) %9)
  %11 = getelementptr inbounds nuw %"struct.std::_Rb_tree_const_iterator.652", ptr %5, i32 0, i32 0
  store ptr %10, ptr %11, align 8
  call void @llvm.lifetime.start.p0(i64 8, ptr %6) #4
  %12 = call ptr @_ZNKSt3mapIjPN7rocksdb18ColumnFamilyHandleESt4lessIjESaISt4pairIKjS2_EEE3endEv(ptr noundef nonnull align 8 dereferenceable(48) %8) #4
  %13 = getelementptr inbounds nuw %"struct.std::_Rb_tree_const_iterator.652", ptr %6, i32 0, i32 0
  store ptr %12, ptr %13, align 8
  %14 = call noundef zeroext i1 @_ZSteqRKSt23_Rb_tree_const_iteratorISt4pairIKjPN7rocksdb18ColumnFamilyHandleEEES8_(ptr noundef nonnull align 8 dereferenceable(8) %5, ptr noundef nonnull align 8 dereferenceable(8) %6) #4
  call void @llvm.lifetime.start.p0(i64 1, ptr %7) #4
  br i1 %14, label %20, label %15

15:                                               ; preds = %2
  call void @_ZNKSt3mapIjPN7rocksdb18ColumnFamilyHandleESt4lessIjESaISt4pairIKjS2_EEE8key_compEv(ptr noundef nonnull align 8 dereferenceable(48) %8)
  %16 = load ptr, ptr %4, align 8, !tbaa !666
  %17 = call noundef nonnull align 8 dereferenceable(16) ptr @_ZNKSt23_Rb_tree_const_iteratorISt4pairIKjPN7rocksdb18ColumnFamilyHandleEEEdeEv(ptr noundef nonnull align 8 dereferenceable(8) %5) #4
  %18 = getelementptr inbounds nuw %"struct.std::pair.654", ptr %17, i32 0, i32 0
  %19 = call noundef zeroext i1 @_ZNKSt4lessIjEclERKjS2_(ptr noundef nonnull align 1 dereferenceable(1) %7, ptr noundef nonnull align 4 dereferenceable(4) %16, ptr noundef nonnull align 4 dereferenceable(4) %18)
  br label %20

20:                                               ; preds = %15, %2
  %21 = phi i1 [ true, %2 ], [ %19, %15 ]
  call void @llvm.lifetime.end.p0(i64 1, ptr %7) #4
  call void @llvm.lifetime.end.p0(i64 8, ptr %6) #4
  br i1 %21, label %22, label %23

22:                                               ; preds = %20
  call void @_ZSt20__throw_out_of_rangePKc(ptr noundef @.str.57) #23
  unreachable

23:                                               ; preds = %20
  %24 = call noundef nonnull align 8 dereferenceable(16) ptr @_ZNKSt23_Rb_tree_const_iteratorISt4pairIKjPN7rocksdb18ColumnFamilyHandleEEEdeEv(ptr noundef nonnull align 8 dereferenceable(8) %5) #4
  %25 = getelementptr inbounds nuw %"struct.std::pair.654", ptr %24, i32 0, i32 1
  call void @llvm.lifetime.end.p0(i64 8, ptr %5) #4
  ret ptr %25
}

; Function Attrs: mustprogress uwtable
define internal void @_ZZN7rocksdb18WriteUnpreparedTxn32FlushWriteBatchWithSavePointToDBEvEN21SavePointBatchHandler7MergeCFEjRKNS_5SliceES4_(ptr dead_on_unwind noalias writable sret(%"class.rocksdb::Status") align 8 %0, ptr noundef nonnull align 8 dereferenceable(24) %1, i32 noundef %2, ptr noundef nonnull align 8 dereferenceable(16) %3, ptr noundef nonnull align 8 dereferenceable(16) %4) unnamed_addr #5 align 2 {
  %6 = alloca ptr, align 8
  %7 = alloca ptr, align 8
  %8 = alloca i32, align 4
  %9 = alloca ptr, align 8
  %10 = alloca ptr, align 8
  store ptr %0, ptr %6, align 8
  store ptr %1, ptr %7, align 8, !tbaa !472
  store i32 %2, ptr %8, align 4, !tbaa !529
  store ptr %3, ptr %9, align 8, !tbaa !356
  store ptr %4, ptr %10, align 8, !tbaa !356
  %11 = load ptr, ptr %7, align 8
  %12 = getelementptr inbounds nuw %struct.SavePointBatchHandler, ptr %11, i32 0, i32 1
  %13 = load ptr, ptr %12, align 8, !tbaa !475
  %14 = getelementptr inbounds nuw %struct.SavePointBatchHandler, ptr %11, i32 0, i32 2
  %15 = load ptr, ptr %14, align 8, !tbaa !999
  %16 = call noundef nonnull align 8 dereferenceable(8) ptr @_ZNKSt3mapIjPN7rocksdb18ColumnFamilyHandleESt4lessIjESaISt4pairIKjS2_EEE2atERS6_(ptr noundef nonnull align 8 dereferenceable(48) %15, ptr noundef nonnull align 4 dereferenceable(4) %8)
  %17 = load ptr, ptr %16, align 8, !tbaa !354
  %18 = load ptr, ptr %9, align 8, !tbaa !356
  %19 = load ptr, ptr %10, align 8, !tbaa !356
  %20 = load ptr, ptr %13, align 8, !tbaa !199
  %21 = getelementptr inbounds ptr, ptr %20, i64 10
  %22 = load ptr, ptr %21, align 8
  call void %22(ptr dead_on_unwind writable sret(%"class.rocksdb::Status") align 8 %0, ptr noundef nonnull align 8 dereferenceable(16) %13, ptr noundef %17, ptr noundef nonnull align 8 dereferenceable(16) %18, ptr noundef nonnull align 8 dereferenceable(16) %19)
  ret void
}