; Function Attrs: mustprogress uwtable
define internal void @_ZZN7rocksdb18WriteUnpreparedTxn32FlushWriteBatchWithSavePointToDBEvEN21SavePointBatchHandler7MergeCFEjRKNS_5SliceES4_(ptr dead_on_unwind noalias writable sret(%"class.rocksdb::Status") align 8 %0, ptr noundef nonnull readonly align 8 captures(none) dereferenceable(24) %1, i32 noundef %2, ptr noundef nonnull align 8 dereferenceable(16) %3, ptr noundef nonnull align 8 dereferenceable(16) %4) unnamed_addr #4 align 2 {
  %6 = getelementptr inbounds nuw i8, ptr %1, i64 8
  %7 = load ptr, ptr %6, align 8, !tbaa !352
  %8 = getelementptr inbounds nuw i8, ptr %1, i64 16
  %9 = load ptr, ptr %8, align 8, !tbaa !679
  %10 = getelementptr inbounds nuw i8, ptr %9, i64 16
  %11 = load ptr, ptr %10, align 8, !tbaa !158
  %12 = getelementptr inbounds nuw i8, ptr %9, i64 8
  %.not10.i.i.i.i = icmp eq ptr %11, null
  br i1 %.not10.i.i.i.i, label %.critedge.i, label %.lr.ph.i.i.i.i

.lr.ph.i.i.i.i:                                   ; preds = %5, %.lr.ph.i.i.i.i
  %.012.i.i.i.i = phi ptr [ %.1.i.i.i.i, %.lr.ph.i.i.i.i ], [ %11, %5 ]
  %.0811.i.i.i.i = phi ptr [ %.19.i.i.i.i, %.lr.ph.i.i.i.i ], [ %12, %5 ]
  %13 = getelementptr inbounds nuw i8, ptr %.012.i.i.i.i, i64 32
  %14 = load i32, ptr %13, align 4, !tbaa !351
  %15 = icmp ult i32 %14, %2
  %.19.i.i.i.i = select i1 %15, ptr %.0811.i.i.i.i, ptr %.012.i.i.i.i
  %.1.in.v.i.i.i.i = select i1 %15, i64 24, i64 16
  %.1.in.i.i.i.i = getelementptr inbounds nuw i8, ptr %.012.i.i.i.i, i64 %.1.in.v.i.i.i.i
  %.1.i.i.i.i = load ptr, ptr %.1.in.i.i.i.i, align 8, !tbaa !159
  %.not.i.i.i.i = icmp eq ptr %.1.i.i.i.i, null
  br i1 %.not.i.i.i.i, label %_ZNKSt3mapIjPN7rocksdb18ColumnFamilyHandleESt4lessIjESaISt4pairIKjS2_EEE11lower_boundERS6_.exit.i, label %.lr.ph.i.i.i.i, !llvm.loop !477

_ZNKSt3mapIjPN7rocksdb18ColumnFamilyHandleESt4lessIjESaISt4pairIKjS2_EEE11lower_boundERS6_.exit.i: ; preds = %.lr.ph.i.i.i.i
  %16 = icmp eq ptr %.19.i.i.i.i, %12
  br i1 %16, label %.critedge.i, label %17

17:                                               ; preds = %_ZNKSt3mapIjPN7rocksdb18ColumnFamilyHandleESt4lessIjESaISt4pairIKjS2_EEE11lower_boundERS6_.exit.i
  %18 = getelementptr inbounds nuw i8, ptr %.19.i.i.i.i, i64 32
  %19 = load i32, ptr %18, align 4, !tbaa !351
  %20 = icmp ult i32 %2, %19
  br i1 %20, label %.critedge.i, label %_ZNKSt3mapIjPN7rocksdb18ColumnFamilyHandleESt4lessIjESaISt4pairIKjS2_EEE2atERS6_.exit

.critedge.i:                                      ; preds = %17, %_ZNKSt3mapIjPN7rocksdb18ColumnFamilyHandleESt4lessIjESaISt4pairIKjS2_EEE11lower_boundERS6_.exit.i, %5
  tail call void @_ZSt20__throw_out_of_rangePKc(ptr noundef nonnull @.str.57) #29
  unreachable

_ZNKSt3mapIjPN7rocksdb18ColumnFamilyHandleESt4lessIjESaISt4pairIKjS2_EEE2atERS6_.exit: ; preds = %17
  %21 = getelementptr inbounds nuw i8, ptr %.19.i.i.i.i, i64 40
  %22 = load ptr, ptr %21, align 8, !tbaa !327
  %23 = load ptr, ptr %7, align 8, !tbaa !155
  %24 = getelementptr inbounds nuw i8, ptr %23, i64 80
  %25 = load ptr, ptr %24, align 8
  tail call void %25(ptr dead_on_unwind writable sret(%"class.rocksdb::Status") align 8 %0, ptr noundef nonnull align 8 dereferenceable(16) %7, ptr noundef %22, ptr noundef nonnull align 8 dereferenceable(16) %3, ptr noundef nonnull align 8 dereferenceable(16) %4)
  ret void
}